; Function Attrs: mustprogress uwtable
define noundef nonnull align 8 dereferenceable(8) ptr @_ZNK4LIEF5MachO13ThreadCommand5printERSo(ptr noundef nonnull align 8 dereferenceable(96) %0, ptr noundef nonnull returned align 8 dereferenceable(8) %1) unnamed_addr #1 align 2 {
  %3 = alloca ptr, align 8
  %4 = tail call noundef nonnull align 8 dereferenceable(8) ptr @_ZNK4LIEF5MachO11LoadCommand5printERSo(ptr noundef nonnull align 8 dereferenceable(56) %0, ptr noundef nonnull align 8 dereferenceable(8) %1)
  %5 = tail call noundef nonnull align 8 dereferenceable(8) ptr @_ZNSolsEPFRSt8ios_baseS0_E(ptr noundef nonnull align 8 dereferenceable(8) %1, ptr noundef nonnull @_ZSt3hexRSt8ios_base)
  %6 = tail call noundef nonnull align 8 dereferenceable(8) ptr @_ZNSolsEPFRSt8ios_baseS0_E(ptr noundef nonnull align 8 dereferenceable(8) %1, ptr noundef nonnull @_ZSt4leftRSt8ios_base)
  %7 = tail call noundef nonnull align 8 dereferenceable(8) ptr @_ZStlsIcSt11char_traitsIcEERSt13basic_ostreamIT_T0_ES6_St5_Setw(ptr noundef nonnull align 8 dereferenceable(8) %6, i32 10)
  %8 = tail call noundef nonnull align 8 dereferenceable(8) ptr @_ZStlsISt11char_traitsIcEERSt13basic_ostreamIcT_ES5_PKc(ptr noundef nonnull align 8 dereferenceable(8) %7, ptr noundef nonnull @.str.1)
  %9 = tail call noundef nonnull align 8 dereferenceable(8) ptr @_ZStlsISt11char_traitsIcEERSt13basic_ostreamIcT_ES5_PKc(ptr noundef nonnull align 8 dereferenceable(8) %8, ptr noundef nonnull @.str.2)
  %10 = getelementptr inbounds i8, ptr %0, i64 56
  %11 = load i32, ptr %10, align 8
  %12 = tail call noundef nonnull align 8 dereferenceable(8) ptr @_ZNSolsEj(ptr noundef nonnull align 8 dereferenceable(8) %9, i32 noundef %11)
  %13 = tail call noundef nonnull align 8 dereferenceable(8) ptr @_ZNSolsEPFRSoS_E(ptr noundef nonnull align 8 dereferenceable(8) %12, ptr noundef nonnull @_ZSt4endlIcSt11char_traitsIcEERSt13basic_ostreamIT_T0_ES6_)
  %14 = tail call noundef nonnull align 8 dereferenceable(8) ptr @_ZStlsIcSt11char_traitsIcEERSt13basic_ostreamIT_T0_ES6_St5_Setw(ptr noundef nonnull align 8 dereferenceable(8) %13, i32 10)
  %15 = tail call noundef nonnull align 8 dereferenceable(8) ptr @_ZStlsISt11char_traitsIcEERSt13basic_ostreamIcT_ES5_PKc(ptr noundef nonnull align 8 dereferenceable(8) %14, ptr noundef nonnull @.str.3)
  %16 = tail call noundef nonnull align 8 dereferenceable(8) ptr @_ZStlsISt11char_traitsIcEERSt13basic_ostreamIcT_ES5_PKc(ptr noundef nonnull align 8 dereferenceable(8) %15, ptr noundef nonnull @.str.2)
  %17 = getelementptr inbounds i8, ptr %0, i64 60
  %18 = load i32, ptr %17, align 4
  %19 = tail call noundef nonnull align 8 dereferenceable(8) ptr @_ZNSolsEj(ptr noundef nonnull align 8 dereferenceable(8) %16, i32 noundef %18)
  %20 = tail call noundef nonnull align 8 dereferenceable(8) ptr @_ZNSolsEPFRSoS_E(ptr noundef nonnull align 8 dereferenceable(8) %19, ptr noundef nonnull @_ZSt4endlIcSt11char_traitsIcEERSt13basic_ostreamIT_T0_ES6_)
  %21 = tail call noundef nonnull align 8 dereferenceable(8) ptr @_ZStlsIcSt11char_traitsIcEERSt13basic_ostreamIT_T0_ES6_St5_Setw(ptr noundef nonnull align 8 dereferenceable(8) %20, i32 10)
  %22 = tail call noundef nonnull align 8 dereferenceable(8) ptr @_ZStlsISt11char_traitsIcEERSt13basic_ostreamIcT_ES5_PKc(ptr noundef nonnull align 8 dereferenceable(8) %21, ptr noundef nonnull @.str.4)
  %23 = tail call noundef nonnull align 8 dereferenceable(8) ptr @_ZStlsISt11char_traitsIcEERSt13basic_ostreamIcT_ES5_PKc(ptr noundef nonnull align 8 dereferenceable(8) %22, ptr noundef nonnull @.str.2)
  %24 = getelementptr inbounds i8, ptr %0, i64 64
  %25 = load i32, ptr %24, align 8
  switch i32 %25, label %76 [
    i32 7, label %26
    i32 16777223, label %39
    i32 12, label %51
    i32 16777228, label %64
  ]

26:                                               ; preds = %2
  %27 = getelementptr inbounds i8, ptr %0, i64 72
  %28 = getelementptr inbounds i8, ptr %0, i64 80
  %29 = load ptr, ptr %28, align 8
  %30 = load ptr, ptr %27, align 8
  %31 = ptrtoint ptr %29 to i64
  %32 = ptrtoint ptr %30 to i64
  %33 = sub i64 %31, %32
  %34 = icmp ult i64 %33, 64
  br i1 %34, label %_ZNK4LIEF5MachO13ThreadCommand2pcEv.exit, label %35

35:                                               ; preds = %26
  %36 = getelementptr inbounds i8, ptr %30, i64 40
  %37 = load i32, ptr %36, align 4
  %38 = zext i32 %37 to i64
  br label %_ZNK4LIEF5MachO13ThreadCommand2pcEv.exit

39:                                               ; preds = %2
  %40 = getelementptr inbounds i8, ptr %0, i64 72
  %41 = getelementptr inbounds i8, ptr %0, i64 80
  %42 = load ptr, ptr %41, align 8
  %43 = load ptr, ptr %40, align 8
  %44 = ptrtoint ptr %42 to i64
  %45 = ptrtoint ptr %43 to i64
  %46 = sub i64 %44, %45
  %47 = icmp ult i64 %46, 168
  br i1 %47, label %_ZNK4LIEF5MachO13ThreadCommand2pcEv.exit, label %48

48:                                               ; preds = %39
  %49 = getelementptr inbounds i8, ptr %43, i64 128
  %50 = load i64, ptr %49, align 8
  br label %_ZNK4LIEF5MachO13ThreadCommand2pcEv.exit

51:                                               ; preds = %2
  %52 = getelementptr inbounds i8, ptr %0, i64 72
  %53 = getelementptr inbounds i8, ptr %0, i64 80
  %54 = load ptr, ptr %53, align 8
  %55 = load ptr, ptr %52, align 8
  %56 = ptrtoint ptr %54 to i64
  %57 = ptrtoint ptr %55 to i64
  %58 = sub i64 %56, %57
  %59 = icmp ult i64 %58, 68
  br i1 %59, label %_ZNK4LIEF5MachO13ThreadCommand2pcEv.exit, label %60

60:                                               ; preds = %51
  %61 = getelementptr inbounds i8, ptr %55, i64 60
  %62 = load i32, ptr %61, align 4
  %63 = zext i32 %62 to i64
  br label %_ZNK4LIEF5MachO13ThreadCommand2pcEv.exit

64:                                               ; preds = %2
  %65 = getelementptr inbounds i8, ptr %0, i64 72
  %66 = getelementptr inbounds i8, ptr %0, i64 80
  %67 = load ptr, ptr %66, align 8
  %68 = load ptr, ptr %65, align 8
  %69 = ptrtoint ptr %67 to i64
  %70 = ptrtoint ptr %68 to i64
  %71 = sub i64 %69, %70
  %72 = icmp ult i64 %71, 272
  br i1 %72, label %_ZNK4LIEF5MachO13ThreadCommand2pcEv.exit, label %73

73:                                               ; preds = %64
  %74 = getelementptr inbounds i8, ptr %68, i64 256
  %75 = load i64, ptr %74, align 8
  br label %_ZNK4LIEF5MachO13ThreadCommand2pcEv.exit

76:                                               ; preds = %2
  call void @llvm.lifetime.start.p0(i64 8, ptr nonnull %3)
  store ptr @.str, ptr %3, align 8
  %77 = tail call noundef nonnull align 8 dereferenceable(16) ptr @_ZN4LIEF7logging6Logger8instanceEv()
  %78 = load ptr, ptr %77, align 8
  call void @_ZN6spdlog6logger3logIPKcEEvNS_5level10level_enumERKT_(ptr noundef nonnull align 8 dereferenceable(208) %78, i32 noundef 4, ptr noundef nonnull align 8 dereferenceable(8) %3)
  call void @llvm.lifetime.end.p0(i64 8, ptr nonnull %3)
  br label %_ZNK4LIEF5MachO13ThreadCommand2pcEv.exit

_ZNK4LIEF5MachO13ThreadCommand2pcEv.exit:         ; preds = %26, %35, %39, %48, %51, %60, %64, %73, %76
  %.06.i = phi i64 [ 0, %26 ], [ 0, %39 ], [ 0, %51 ], [ 0, %64 ], [ 0, %76 ], [ %75, %73 ], [ %63, %60 ], [ %50, %48 ], [ %38, %35 ]
  %79 = call noundef nonnull align 8 dereferenceable(8) ptr @_ZNSolsEm(ptr noundef nonnull align 8 dereferenceable(8) %23, i64 noundef %.06.i)
  ret ptr %1
}